target datalayout = "e-m:e-p270:32:32-p271:32:32-p272:64:64-i64:64-i128:128-f80:128-n8:16:32:64-S128"
target triple = "x86_64-pc-linux-gnu"

%struct.DdManager = type { %struct.DdNode, ptr, ptr, ptr, ptr, ptr, ptr, ptr, i32, i32, double, double, double, i32, i32, i32, i32, i32, i32, ptr, ptr, %struct.DdSubtable, i32, i32, i32, i32, i32, i32, i32, double, i32, i32, i32, ptr, i64, double, i32, ptr, ptr, ptr, ptr, ptr, ptr, ptr, i32, ptr, ptr, ptr, ptr, ptr, ptr, i32, i32, i32, double, i32, i32, i32, i32, double, double, i32, i32, i32, i32, i32, i32, i32, i32, i32, ptr, ptr, i32, i32, i32, i32, i32, i32, ptr, ptr, ptr, ptr, ptr, ptr, ptr, ptr, i32, i64, i64, i64, i32, i64, i64, double, double, double, double, double, double, i32, ptr, ptr, i64 }
%struct.DdNode = type { i32, i32, ptr, %union.anon, i64 }
%union.anon = type { %struct.DdChildren }
%struct.DdChildren = type { ptr, ptr }
%struct.DdSubtable = type { ptr, i32, i32, i32, i32, i32, i32, i32, i32, i32, i32, i32 }

; Function Attrs: nounwind uwtable
define ptr @Cudd_zddIthVar(ptr noundef %0, i32 noundef %1) #0 {
  %3 = alloca ptr, align 8
  %4 = alloca ptr, align 8
  %5 = alloca i32, align 4
  %6 = alloca ptr, align 8
  %7 = alloca ptr, align 8
  %8 = alloca ptr, align 8
  %9 = alloca i32, align 4
  store ptr %0, ptr %4, align 8
  store i32 %1, ptr %5, align 4
  %10 = load i32, ptr %5, align 4
  %11 = icmp uge i32 %10, 2147483646
  br i1 %11, label %12, label %13

12:                                               ; preds = %2
  store ptr null, ptr %3, align 8
  br label %128

13:                                               ; preds = %2
  %14 = load i32, ptr %5, align 4
  %15 = load ptr, ptr %4, align 8
  %16 = getelementptr inbounds %struct.DdManager, ptr %15, i32 0, i32 16
  %17 = load i32, ptr %16, align 4
  %18 = sub nsw i32 %17, 1
  %19 = icmp slt i32 %14, %18
  br i1 %19, label %20, label %35

20:                                               ; preds = %13
  %21 = load ptr, ptr %4, align 8
  %22 = getelementptr inbounds %struct.DdManager, ptr %21, i32 0, i32 43
  %23 = load ptr, ptr %22, align 8
  %24 = load ptr, ptr %4, align 8
  %25 = getelementptr inbounds %struct.DdManager, ptr %24, i32 0, i32 38
  %26 = load ptr, ptr %25, align 8
  %27 = load i32, ptr %5, align 4
  %28 = sext i32 %27 to i64
  %29 = getelementptr inbounds i32, ptr %26, i64 %28
  %30 = load i32, ptr %29, align 4
  %31 = add nsw i32 %30, 1
  %32 = sext i32 %31 to i64
  %33 = getelementptr inbounds ptr, ptr %23, i64 %32
  %34 = load ptr, ptr %33, align 8
  br label %39

35:                                               ; preds = %13
  %36 = load ptr, ptr %4, align 8
  %37 = getelementptr inbounds %struct.DdManager, ptr %36, i32 0, i32 1
  %38 = load ptr, ptr %37, align 8
  br label %39

39:                                               ; preds = %35, %20
  %40 = phi ptr [ %34, %20 ], [ %38, %35 ]
  store ptr %40, ptr %8, align 8
  br label %41

41:                                               ; preds = %51, %39
  %42 = load ptr, ptr %4, align 8
  %43 = getelementptr inbounds %struct.DdManager, ptr %42, i32 0, i32 55
  store i32 0, ptr %43, align 8
  %44 = load ptr, ptr %4, align 8
  %45 = load i32, ptr %5, align 4
  %46 = load ptr, ptr %8, align 8
  %47 = load ptr, ptr %4, align 8
  %48 = getelementptr inbounds %struct.DdManager, ptr %47, i32 0, i32 2
  %49 = load ptr, ptr %48, align 8
  %50 = call ptr @cuddUniqueInterZdd(ptr noundef %44, i32 noundef %45, ptr noundef %46, ptr noundef %49)
  store ptr %50, ptr %7, align 8
  br label %51

51:                                               ; preds = %41
  %52 = load ptr, ptr %4, align 8
  %53 = getelementptr inbounds %struct.DdManager, ptr %52, i32 0, i32 55
  %54 = load i32, ptr %53, align 8
  %55 = icmp eq i32 %54, 1
  br i1 %55, label %41, label %56, !llvm.loop !8

56:                                               ; preds = %51
  %57 = load ptr, ptr %7, align 8
  %58 = icmp eq ptr %57, null
  br i1 %58, label %59, label %60

59:                                               ; preds = %56
  store ptr null, ptr %3, align 8
  br label %128

60:                                               ; preds = %56
  %61 = load ptr, ptr %7, align 8
  %62 = ptrtoint ptr %61 to i64
  %63 = and i64 %62, -2
  %64 = inttoptr i64 %63 to ptr
  %65 = getelementptr inbounds %struct.DdNode, ptr %64, i32 0, i32 1
  %66 = load i32, ptr %65, align 4
  %67 = add i32 %66, 1
  store i32 %67, ptr %65, align 4
  %68 = load ptr, ptr %4, align 8
  %69 = getelementptr inbounds %struct.DdManager, ptr %68, i32 0, i32 38
  %70 = load ptr, ptr %69, align 8
  %71 = load i32, ptr %5, align 4
  %72 = sext i32 %71 to i64
  %73 = getelementptr inbounds i32, ptr %70, i64 %72
  %74 = load i32, ptr %73, align 4
  %75 = sub nsw i32 %74, 1
  store i32 %75, ptr %9, align 4
  br label %76

76:                                               ; preds = %116, %60
  %77 = load i32, ptr %9, align 4
  %78 = icmp sge i32 %77, 0
  br i1 %78, label %79, label %119

79:                                               ; preds = %76
  br label %80

80:                                               ; preds = %94, %79
  %81 = load ptr, ptr %4, align 8
  %82 = getelementptr inbounds %struct.DdManager, ptr %81, i32 0, i32 55
  store i32 0, ptr %82, align 8
  %83 = load ptr, ptr %4, align 8
  %84 = load ptr, ptr %4, align 8
  %85 = getelementptr inbounds %struct.DdManager, ptr %84, i32 0, i32 40
  %86 = load ptr, ptr %85, align 8
  %87 = load i32, ptr %9, align 4
  %88 = sext i32 %87 to i64
  %89 = getelementptr inbounds i32, ptr %86, i64 %88
  %90 = load i32, ptr %89, align 4
  %91 = load ptr, ptr %7, align 8
  %92 = load ptr, ptr %7, align 8
  %93 = call ptr @cuddUniqueInterZdd(ptr noundef %83, i32 noundef %90, ptr noundef %91, ptr noundef %92)
  store ptr %93, ptr %6, align 8
  br label %94

94:                                               ; preds = %80
  %95 = load ptr, ptr %4, align 8
  %96 = getelementptr inbounds %struct.DdManager, ptr %95, i32 0, i32 55
  %97 = load i32, ptr %96, align 8
  %98 = icmp eq i32 %97, 1
  br i1 %98, label %80, label %99, !llvm.loop !9

99:                                               ; preds = %94
  %100 = load ptr, ptr %6, align 8
  %101 = icmp eq ptr %100, null
  br i1 %101, label %102, label %105

102:                                              ; preds = %99
  %103 = load ptr, ptr %4, align 8
  %104 = load ptr, ptr %7, align 8
  call void @Cudd_RecursiveDerefZdd(ptr noundef %103, ptr noundef %104)
  store ptr null, ptr %3, align 8
  br label %128

105:                                              ; preds = %99
  %106 = load ptr, ptr %6, align 8
  %107 = ptrtoint ptr %106 to i64
  %108 = and i64 %107, -2
  %109 = inttoptr i64 %108 to ptr
  %110 = getelementptr inbounds %struct.DdNode, ptr %109, i32 0, i32 1
  %111 = load i32, ptr %110, align 4
  %112 = add i32 %111, 1
  store i32 %112, ptr %110, align 4
  %113 = load ptr, ptr %4, align 8
  %114 = load ptr, ptr %7, align 8
  call void @Cudd_RecursiveDerefZdd(ptr noundef %113, ptr noundef %114)
  %115 = load ptr, ptr %6, align 8
  store ptr %115, ptr %7, align 8
  br label %116

116:                                              ; preds = %105
  %117 = load i32, ptr %9, align 4
  %118 = add nsw i32 %117, -1
  store i32 %118, ptr %9, align 4
  br label %76, !llvm.loop !10

119:                                              ; preds = %76
  %120 = load ptr, ptr %7, align 8
  %121 = ptrtoint ptr %120 to i64
  %122 = and i64 %121, -2
  %123 = inttoptr i64 %122 to ptr
  %124 = getelementptr inbounds %struct.DdNode, ptr %123, i32 0, i32 1
  %125 = load i32, ptr %124, align 4
  %126 = add i32 %125, -1
  store i32 %126, ptr %124, align 4
  %127 = load ptr, ptr %7, align 8
  store ptr %127, ptr %3, align 8
  br label %128

128:                                              ; preds = %119, %102, %59, %12
  %129 = load ptr, ptr %3, align 8
  ret ptr %129
}