; Function Attrs: nounwind uwtable
define ptr @Cudd_zddIthVar(ptr noundef %0, i32 noundef %1) local_unnamed_addr #0 {
  %3 = icmp ugt i32 %1, 2147483645
  br i1 %3, label %69, label %4

4:                                                ; preds = %2
  %5 = getelementptr inbounds nuw i8, ptr %0, i64 140
  %6 = load i32, ptr %5, align 4
  %7 = add nsw i32 %6, -1
  %8 = icmp slt i32 %1, %7
  br i1 %8, label %9, label %20

9:                                                ; preds = %4
  %10 = getelementptr inbounds nuw i8, ptr %0, i64 360
  %11 = load ptr, ptr %10, align 8
  %12 = getelementptr inbounds nuw i8, ptr %0, i64 320
  %13 = load ptr, ptr %12, align 8
  %14 = zext nneg i32 %1 to i64
  %15 = getelementptr inbounds nuw i32, ptr %13, i64 %14
  %16 = load i32, ptr %15, align 4
  %17 = sext i32 %16 to i64
  %18 = getelementptr ptr, ptr %11, i64 %17
  %19 = getelementptr i8, ptr %18, i64 8
  br label %22

20:                                               ; preds = %4
  %21 = getelementptr inbounds nuw i8, ptr %0, i64 40
  br label %22

22:                                               ; preds = %20, %9
  %.in = phi ptr [ %19, %9 ], [ %21, %20 ]
  %23 = load ptr, ptr %.in, align 8
  %24 = getelementptr inbounds nuw i8, ptr %0, i64 448
  %25 = getelementptr inbounds nuw i8, ptr %0, i64 48
  br label %26

26:                                               ; preds = %26, %22
  store i32 0, ptr %24, align 8
  %27 = load ptr, ptr %25, align 8
  %28 = tail call ptr @cuddUniqueInterZdd(ptr noundef nonnull %0, i32 noundef %1, ptr noundef %23, ptr noundef %27) #20
  %29 = load i32, ptr %24, align 8
  %30 = icmp eq i32 %29, 1
  br i1 %30, label %26, label %31, !llvm.loop !8

31:                                               ; preds = %26
  %32 = icmp eq ptr %28, null
  br i1 %32, label %69, label %33

33:                                               ; preds = %31
  %34 = ptrtoint ptr %28 to i64
  %35 = and i64 %34, -2
  %36 = inttoptr i64 %35 to ptr
  %37 = getelementptr inbounds nuw i8, ptr %36, i64 4
  %38 = load i32, ptr %37, align 4
  %39 = add i32 %38, 1
  store i32 %39, ptr %37, align 4
  %40 = getelementptr inbounds nuw i8, ptr %0, i64 320
  %41 = load ptr, ptr %40, align 8
  %42 = zext nneg i32 %1 to i64
  %43 = getelementptr inbounds nuw i32, ptr %41, i64 %42
  %44 = load i32, ptr %43, align 4
  %45 = icmp sgt i32 %44, 0
  br i1 %45, label %.preheader.lr.ph, label %._crit_edge

.preheader.lr.ph:                                 ; preds = %33
  %46 = getelementptr inbounds nuw i8, ptr %0, i64 336
  %47 = zext nneg i32 %44 to i64
  br label %.preheader

.preheader:                                       ; preds = %.preheader.lr.ph, %58
  %indvars.iv = phi i64 [ %47, %.preheader.lr.ph ], [ %indvars.iv.next, %58 ]
  %.03644 = phi ptr [ %28, %.preheader.lr.ph ], [ %52, %58 ]
  %indvars.iv.next = add nsw i64 %indvars.iv, -1
  br label %48

48:                                               ; preds = %.preheader, %48
  store i32 0, ptr %24, align 8
  %49 = load ptr, ptr %46, align 8
  %50 = getelementptr inbounds i32, ptr %49, i64 %indvars.iv.next
  %51 = load i32, ptr %50, align 4
  %52 = tail call ptr @cuddUniqueInterZdd(ptr noundef nonnull %0, i32 noundef %51, ptr noundef nonnull %.03644, ptr noundef nonnull %.03644) #20
  %53 = load i32, ptr %24, align 8
  %54 = icmp eq i32 %53, 1
  br i1 %54, label %48, label %55, !llvm.loop !9

55:                                               ; preds = %48
  %56 = icmp eq ptr %52, null
  br i1 %56, label %57, label %58

57:                                               ; preds = %55
  tail call void @Cudd_RecursiveDerefZdd(ptr noundef nonnull %0, ptr noundef nonnull %.03644) #20
  br label %69

58:                                               ; preds = %55
  %59 = ptrtoint ptr %52 to i64
  %60 = and i64 %59, -2
  %61 = inttoptr i64 %60 to ptr
  %62 = getelementptr inbounds nuw i8, ptr %61, i64 4
  %63 = load i32, ptr %62, align 4
  %64 = add i32 %63, 1
  store i32 %64, ptr %62, align 4
  tail call void @Cudd_RecursiveDerefZdd(ptr noundef nonnull %0, ptr noundef nonnull %.03644) #20
  %65 = icmp sgt i64 %indvars.iv, 1
  br i1 %65, label %.preheader, label %._crit_edge, !llvm.loop !10

._crit_edge:                                      ; preds = %58, %33
  %.pre-phi51 = phi ptr [ %36, %33 ], [ %61, %58 ]
  %.036.lcssa = phi ptr [ %28, %33 ], [ %52, %58 ]
  %66 = getelementptr inbounds nuw i8, ptr %.pre-phi51, i64 4
  %67 = load i32, ptr %66, align 4
  %68 = add i32 %67, -1
  store i32 %68, ptr %66, align 4
  br label %69

69:                                               ; preds = %31, %2, %._crit_edge, %57
  %.035 = phi ptr [ null, %57 ], [ %.036.lcssa, %._crit_edge ], [ null, %2 ], [ null, %31 ]
  ret ptr %.035
}